target datalayout = "e-m:e-p270:32:32-p271:32:32-p272:64:64-i64:64-i128:128-f80:128-n8:16:32:64-S128"
target triple = "x86_64-unknown-linux-gnu"

%class.b3GpuParallelLinearBvhBroadphase = type { %class.b3GpuBroadphaseInterface, %class.b3GpuParallelLinearBvh, %class.b3OpenCLArray.8, %class.b3OpenCLArray.0, %class.b3OpenCLArray, %class.b3OpenCLArray, %class.b3AlignedObjectArray, %class.b3AlignedObjectArray.10, %class.b3AlignedObjectArray.10 }
%class.b3GpuBroadphaseInterface = type { ptr }
%class.b3GpuParallelLinearBvh = type { ptr, ptr, ptr, ptr, ptr, ptr, ptr, ptr, ptr, ptr, ptr, ptr, ptr, ptr, ptr, ptr, %class.b3RadixSort32CL, %class.b3OpenCLArray, %class.b3OpenCLArray, %class.b3OpenCLArray, %class.b3OpenCLArray.0, %class.b3OpenCLArray.2, %class.b3OpenCLArray.2, %class.b3OpenCLArray, %class.b3OpenCLArray.4, %class.b3OpenCLArray, %class.b3OpenCLArray, %class.b3OpenCLArray, %class.b3OpenCLArray.6, %class.b3OpenCLArray.0, %class.b3OpenCLArray.0, %class.b3OpenCLArray.0 }
%class.b3RadixSort32CL = type { ptr, ptr, ptr, ptr, ptr, ptr, ptr, ptr, ptr, ptr, ptr, ptr, ptr, i8, ptr, ptr }
%class.b3OpenCLArray.2 = type <{ ptr, i64, i64, ptr, ptr, ptr, i8, i8, [6 x i8] }>
%class.b3OpenCLArray.4 = type <{ ptr, i64, i64, ptr, ptr, ptr, i8, i8, [6 x i8] }>
%class.b3OpenCLArray.6 = type <{ ptr, i64, i64, ptr, ptr, ptr, i8, i8, [6 x i8] }>
%class.b3OpenCLArray.8 = type <{ ptr, i64, i64, ptr, ptr, ptr, i8, i8, [6 x i8] }>
%class.b3OpenCLArray.0 = type <{ ptr, i64, i64, ptr, ptr, ptr, i8, i8, [6 x i8] }>
%class.b3OpenCLArray = type <{ ptr, i64, i64, ptr, ptr, ptr, i8, i8, [6 x i8] }>
%class.b3AlignedObjectArray = type <{ %class.b3AlignedAllocator, [3 x i8], i32, i32, [4 x i8], ptr, i8, [7 x i8] }>
%class.b3AlignedAllocator = type { i8 }
%class.b3AlignedObjectArray.10 = type <{ %class.b3AlignedAllocator.11, [3 x i8], i32, i32, [4 x i8], ptr, i8, [7 x i8] }>
%class.b3AlignedAllocator.11 = type { i8 }

; Function Attrs: mustprogress nounwind uwtable
define linkonce_odr dso_local noundef i64 @_ZNK13b3OpenCLArrayI6b3Int4E4sizeEv(ptr noundef nonnull align 8 dereferenceable(50) %this) #1 comdat align 2 {
entry:
  %this.addr = alloca ptr, align 8
  store ptr %this, ptr %this.addr, align 8
  %this1 = load ptr, ptr %this.addr, align 8
  %m_size = getelementptr inbounds %class.b3OpenCLArray.8, ptr %this1, i32 0, i32 1
  %0 = load i64, ptr %m_size, align 8
  ret i64 %0
}

; Function Attrs: mustprogress uwtable
define linkonce_odr dso_local noundef zeroext i1 @_ZN13b3OpenCLArrayI6b3Int4E6resizeEmb(ptr noundef nonnull align 8 dereferenceable(50) %this, i64 noundef %newsize, i1 noundef zeroext %copyOldContents) #0 comdat align 2 {
entry:
  %this.addr = alloca ptr, align 8
  %newsize.addr = alloca i64, align 8
  %copyOldContents.addr = alloca i8, align 1
  %result = alloca i8, align 1
  %curSize = alloca i64, align 8
  store ptr %this, ptr %this.addr, align 8
  store i64 %newsize, ptr %newsize.addr, align 8
  %frombool = zext i1 %copyOldContents to i8
  store i8 %frombool, ptr %copyOldContents.addr, align 1
  %this1 = load ptr, ptr %this.addr, align 8
  store i8 1, ptr %result, align 1
  %call = call noundef i64 @_ZNK13b3OpenCLArrayI6b3Int4E4sizeEv(ptr noundef nonnull align 8 dereferenceable(50) %this1)
  store i64 %call, ptr %curSize, align 8
  %0 = load i64, ptr %newsize.addr, align 8
  %1 = load i64, ptr %curSize, align 8
  %cmp = icmp ult i64 %0, %1
  br i1 %cmp, label %if.then, label %if.else

if.then:                                          ; preds = %entry
  br label %if.end7

if.else:                                          ; preds = %entry
  %2 = load i64, ptr %newsize.addr, align 8
  %call2 = call noundef i64 @_ZNK13b3OpenCLArrayI6b3Int4E4sizeEv(ptr noundef nonnull align 8 dereferenceable(50) %this1)
  %cmp3 = icmp ugt i64 %2, %call2
  br i1 %cmp3, label %if.then4, label %if.end

if.then4:                                         ; preds = %if.else
  %3 = load i64, ptr %newsize.addr, align 8
  %4 = load i8, ptr %copyOldContents.addr, align 1
  %tobool = trunc i8 %4 to i1
  %call5 = call noundef zeroext i1 @_ZN13b3OpenCLArrayI6b3Int4E7reserveEmb(ptr noundef nonnull align 8 dereferenceable(50) %this1, i64 noundef %3, i1 noundef zeroext %tobool)
  %frombool6 = zext i1 %call5 to i8
  store i8 %frombool6, ptr %result, align 1
  br label %if.end

if.end:                                           ; preds = %if.then4, %if.else
  br label %if.end7

if.end7:                                          ; preds = %if.end, %if.then
  %5 = load i8, ptr %result, align 1
  %tobool8 = trunc i8 %5 to i1
  br i1 %tobool8, label %if.then9, label %if.else10

if.then9:                                         ; preds = %if.end7
  %6 = load i64, ptr %newsize.addr, align 8
  %m_size = getelementptr inbounds %class.b3OpenCLArray.8, ptr %this1, i32 0, i32 1
  store i64 %6, ptr %m_size, align 8
  br label %if.end12

if.else10:                                        ; preds = %if.end7
  %m_size11 = getelementptr inbounds %class.b3OpenCLArray.8, ptr %this1, i32 0, i32 1
  store i64 0, ptr %m_size11, align 8
  br label %if.end12

if.end12:                                         ; preds = %if.else10, %if.then9
  %7 = load i8, ptr %result, align 1
  %tobool13 = trunc i8 %7 to i1
  ret i1 %tobool13
}

; Function Attrs: mustprogress uwtable
define dso_local void @_ZN32b3GpuParallelLinearBvhBroadphase25calculateOverlappingPairsEi(ptr noundef nonnull align 8 dereferenceable(1424) %this, i32 noundef %maxPairs) unnamed_addr #0 align 2 {
entry:
  %this.addr = alloca ptr, align 8
  %maxPairs.addr = alloca i32, align 4
  store ptr %this, ptr %this.addr, align 8
  store i32 %maxPairs, ptr %maxPairs.addr, align 4
  %this1 = load ptr, ptr %this.addr, align 8
  %m_plbvh = getelementptr inbounds %class.b3GpuParallelLinearBvhBroadphase, ptr %this1, i32 0, i32 1
  %m_aabbsGpu = getelementptr inbounds %class.b3GpuParallelLinearBvhBroadphase, ptr %this1, i32 0, i32 3
  %m_smallAabbsMappingGpu = getelementptr inbounds %class.b3GpuParallelLinearBvhBroadphase, ptr %this1, i32 0, i32 4
  %m_largeAabbsMappingGpu = getelementptr inbounds %class.b3GpuParallelLinearBvhBroadphase, ptr %this1, i32 0, i32 5
  call void @_ZN22b3GpuParallelLinearBvh5buildERK13b3OpenCLArrayI9b3SapAabbERKS0_IiES7_(ptr noundef nonnull align 8 dereferenceable(1096) %m_plbvh, ptr noundef nonnull align 8 dereferenceable(50) %m_aabbsGpu, ptr noundef nonnull align 8 dereferenceable(50) %m_smallAabbsMappingGpu, ptr noundef nonnull align 8 dereferenceable(50) %m_largeAabbsMappingGpu)
  %m_overlappingPairsGpu = getelementptr inbounds %class.b3GpuParallelLinearBvhBroadphase, ptr %this1, i32 0, i32 2
  %0 = load i32, ptr %maxPairs.addr, align 4
  %conv = sext i32 %0 to i64
  %call = call noundef zeroext i1 @_ZN13b3OpenCLArrayI6b3Int4E6resizeEmb(ptr noundef nonnull align 8 dereferenceable(50) %m_overlappingPairsGpu, i64 noundef %conv, i1 noundef zeroext true)
  %m_plbvh2 = getelementptr inbounds %class.b3GpuParallelLinearBvhBroadphase, ptr %this1, i32 0, i32 1
  %m_overlappingPairsGpu3 = getelementptr inbounds %class.b3GpuParallelLinearBvhBroadphase, ptr %this1, i32 0, i32 2
  call void @_ZN22b3GpuParallelLinearBvh25calculateOverlappingPairsER13b3OpenCLArrayI6b3Int4E(ptr noundef nonnull align 8 dereferenceable(1096) %m_plbvh2, ptr noundef nonnull align 8 dereferenceable(50) %m_overlappingPairsGpu3)
  ret void
}