; Function Attrs: mustprogress uwtable
define dso_local void @_ZN32b3GpuParallelLinearBvhBroadphase25calculateOverlappingPairsEi(ptr noundef nonnull align 8 dereferenceable(1424) %this, i32 noundef %maxPairs) unnamed_addr #0 align 2 {
entry:
  %m_plbvh = getelementptr inbounds i8, ptr %this, i64 8
  %m_aabbsGpu = getelementptr inbounds i8, ptr %this, i64 1160
  %m_smallAabbsMappingGpu = getelementptr inbounds i8, ptr %this, i64 1216
  %m_largeAabbsMappingGpu = getelementptr inbounds i8, ptr %this, i64 1272
  tail call void @_ZN22b3GpuParallelLinearBvh5buildERK13b3OpenCLArrayI9b3SapAabbERKS0_IiES7_(ptr noundef nonnull align 8 dereferenceable(1096) %m_plbvh, ptr noundef nonnull align 8 dereferenceable(50) %m_aabbsGpu, ptr noundef nonnull align 8 dereferenceable(50) %m_smallAabbsMappingGpu, ptr noundef nonnull align 8 dereferenceable(50) %m_largeAabbsMappingGpu)
  %m_overlappingPairsGpu = getelementptr inbounds i8, ptr %this, i64 1104
  %conv = sext i32 %maxPairs to i64
  %m_size.i.i = getelementptr inbounds i8, ptr %this, i64 1112
  %0 = load i64, ptr %m_size.i.i, align 8
  %cmp3.i = icmp ult i64 %0, %conv
  br i1 %cmp3.i, label %if.end7.i, label %_ZN13b3OpenCLArrayI6b3Int4E6resizeEmb.exit

if.end7.i:                                        ; preds = %entry
  %call5.i = tail call noundef zeroext i1 @_ZN13b3OpenCLArrayI6b3Int4E7reserveEmb(ptr noundef nonnull align 8 dereferenceable(50) %m_overlappingPairsGpu, i64 noundef %conv, i1 noundef zeroext true)
  %spec.select.i = select i1 %call5.i, i64 %conv, i64 0
  br label %_ZN13b3OpenCLArrayI6b3Int4E6resizeEmb.exit

_ZN13b3OpenCLArrayI6b3Int4E6resizeEmb.exit:       ; preds = %entry, %if.end7.i
  %storemerge.i = phi i64 [ %conv, %entry ], [ %spec.select.i, %if.end7.i ]
  store i64 %storemerge.i, ptr %m_size.i.i, align 8
  tail call void @_ZN22b3GpuParallelLinearBvh25calculateOverlappingPairsER13b3OpenCLArrayI6b3Int4E(ptr noundef nonnull align 8 dereferenceable(1096) %m_plbvh, ptr noundef nonnull align 8 dereferenceable(50) %m_overlappingPairsGpu)
  ret void
}